target datalayout = "e-m:e-p270:32:32-p271:32:32-p272:64:64-i64:64-i128:128-f80:128-n8:16:32:64-S128"
target triple = "x86_64-pc-linux-gnu"

@PyExc_OverflowError = external global ptr, align 8
@.str.122 = private unnamed_addr constant [13 x i8] c"n:CMSG_SPACE\00", align 1
@.str.123 = private unnamed_addr constant [35 x i8] c"CMSG_SPACE() argument out of range\00", align 1

; Function Attrs: nounwind uwtable
define internal i32 @get_CMSG_SPACE(i64 noundef %0, ptr noundef %1) #0 {
  %3 = alloca i32, align 4
  %4 = alloca i64, align 8
  %5 = alloca ptr, align 8
  %6 = alloca i64, align 8
  %7 = alloca i32, align 4
  store i64 %0, ptr %4, align 8, !tbaa !52
  store ptr %1, ptr %5, align 8, !tbaa !114
  call void @llvm.lifetime.start.p0(i64 8, ptr %6) #10
  %8 = load i64, ptr %4, align 8, !tbaa !52
  %9 = icmp ugt i64 %8, 2147483623
  br i1 %9, label %10, label %11

10:                                               ; preds = %2
  store i32 0, ptr %3, align 4
  store i32 1, ptr %7, align 4
  br label %27

11:                                               ; preds = %2
  %12 = load i64, ptr %4, align 8, !tbaa !52
  %13 = add i64 %12, 8
  %14 = sub i64 %13, 1
  %15 = and i64 %14, -8
  %16 = add i64 %15, 16
  store i64 %16, ptr %6, align 8, !tbaa !52
  %17 = load i64, ptr %6, align 8, !tbaa !52
  %18 = icmp ugt i64 %17, 2147483647
  br i1 %18, label %23, label %19

19:                                               ; preds = %11
  %20 = load i64, ptr %6, align 8, !tbaa !52
  %21 = load i64, ptr %4, align 8, !tbaa !52
  %22 = icmp ult i64 %20, %21
  br i1 %22, label %23, label %24

23:                                               ; preds = %19, %11
  store i32 0, ptr %3, align 4
  store i32 1, ptr %7, align 4
  br label %27

24:                                               ; preds = %19
  %25 = load i64, ptr %6, align 8, !tbaa !52
  %26 = load ptr, ptr %5, align 8, !tbaa !114
  store i64 %25, ptr %26, align 8, !tbaa !52
  store i32 1, ptr %3, align 4
  store i32 1, ptr %7, align 4
  br label %27

27:                                               ; preds = %24, %23, %10
  call void @llvm.lifetime.end.p0(i64 8, ptr %6) #10
  %28 = load i32, ptr %3, align 4
  ret i32 %28
}

; Function Attrs: nounwind uwtable
define internal ptr @socket_CMSG_SPACE(ptr noundef %0, ptr noundef %1) #0 {
  %3 = alloca ptr, align 8
  %4 = alloca ptr, align 8
  %5 = alloca ptr, align 8
  %6 = alloca i64, align 8
  %7 = alloca i64, align 8
  %8 = alloca i32, align 4
  store ptr %0, ptr %4, align 8, !tbaa !3
  store ptr %1, ptr %5, align 8, !tbaa !3
  call void @llvm.lifetime.start.p0(i64 8, ptr %6) #10
  call void @llvm.lifetime.start.p0(i64 8, ptr %7) #10
  %9 = load ptr, ptr %5, align 8, !tbaa !3
  %10 = call i32 (ptr, ptr, ...) @PyArg_ParseTuple(ptr noundef %9, ptr noundef @.str.122, ptr noundef %6)
  %11 = icmp ne i32 %10, 0
  br i1 %11, label %13, label %12

12:                                               ; preds = %2
  store ptr null, ptr %3, align 8
  store i32 1, ptr %8, align 4
  br label %25

13:                                               ; preds = %2
  %14 = load i64, ptr %6, align 8, !tbaa !52
  %15 = icmp slt i64 %14, 0
  br i1 %15, label %20, label %16

16:                                               ; preds = %13
  %17 = load i64, ptr %6, align 8, !tbaa !52
  %18 = call i32 @get_CMSG_SPACE(i64 noundef %17, ptr noundef %7)
  %19 = icmp ne i32 %18, 0
  br i1 %19, label %22, label %20

20:                                               ; preds = %16, %13
  %21 = load ptr, ptr @PyExc_OverflowError, align 8, !tbaa !3
  call void @PyErr_SetString(ptr noundef %21, ptr noundef @.str.123)
  store ptr null, ptr %3, align 8
  store i32 1, ptr %8, align 4
  br label %25

22:                                               ; preds = %16
  %23 = load i64, ptr %7, align 8, !tbaa !52
  %24 = call ptr @PyLong_FromSize_t(i64 noundef %23)
  store ptr %24, ptr %3, align 8
  store i32 1, ptr %8, align 4
  br label %25

25:                                               ; preds = %22, %20, %12
  call void @llvm.lifetime.end.p0(i64 8, ptr %7) #10
  call void @llvm.lifetime.end.p0(i64 8, ptr %6) #10
  %26 = load ptr, ptr %3, align 8
  ret ptr %26
}