; Function Attrs: nounwind uwtable
define internal ptr @socket_CMSG_SPACE(ptr readnone captures(none) %0, ptr noundef %1) #0 {
  %3 = alloca i64, align 8
  call void @llvm.lifetime.start.p0(i64 8, ptr nonnull %3) #13
  %4 = call i32 (ptr, ptr, ...) @PyArg_ParseTuple(ptr noundef %1, ptr noundef nonnull @.str.122, ptr noundef nonnull %3) #13
  %.not = icmp eq i32 %4, 0
  br i1 %.not, label %14, label %5

5:                                                ; preds = %2
  %6 = load i64, ptr %3, align 8, !tbaa !47
  %or.cond = icmp ugt i64 %6, 2147483623
  br i1 %or.cond, label %get_CMSG_SPACE.exit.thread, label %7

7:                                                ; preds = %5
  %8 = add nuw nsw i64 %6, 7
  %9 = and i64 %8, 4294967288
  %10 = add nuw nsw i64 %9, 16
  %11 = icmp samesign ult i64 %10, %6
  br i1 %11, label %get_CMSG_SPACE.exit.thread, label %get_CMSG_SPACE.exit

get_CMSG_SPACE.exit.thread:                       ; preds = %7, %5
  %12 = load ptr, ptr @PyExc_OverflowError, align 8, !tbaa !19
  call void @PyErr_SetString(ptr noundef %12, ptr noundef nonnull @.str.123) #13
  br label %14

get_CMSG_SPACE.exit:                              ; preds = %7
  %13 = call ptr @PyLong_FromSize_t(i64 noundef %10) #13
  br label %14

14:                                               ; preds = %2, %get_CMSG_SPACE.exit, %get_CMSG_SPACE.exit.thread
  %.0 = phi ptr [ null, %get_CMSG_SPACE.exit.thread ], [ %13, %get_CMSG_SPACE.exit ], [ null, %2 ]
  call void @llvm.lifetime.end.p0(i64 8, ptr nonnull %3) #13
  ret ptr %.0
}